; Function Attrs: nounwind uwtable
define internal fastcc range(i32 -1, 1) i32 @_unpack_suspend_int_msg(ptr noundef writeonly captures(none) initializes((0, 8)) %0, ptr noundef %1, i16 noundef zeroext %2) unnamed_addr #0 {
  %4 = tail call ptr @slurm_xcalloc(i64 noundef 1, i64 noundef 8, i1 noundef zeroext true, i1 noundef zeroext false, ptr noundef nonnull @.str.2, i32 noundef 10677, ptr noundef nonnull @__func__._unpack_suspend_int_msg) #7
  store ptr %4, ptr %0, align 8
  %5 = icmp ugt i16 %2, 10239
  br i1 %5, label %6, label %12

6:                                                ; preds = %3
  %7 = tail call i32 @unpack32(ptr noundef %4, ptr noundef %1) #7
  %.not = icmp eq i32 %7, 0
  br i1 %.not, label %8, label %11

8:                                                ; preds = %6
  %9 = getelementptr inbounds nuw i8, ptr %4, i64 4
  %10 = tail call i32 @unpack16(ptr noundef nonnull %9, ptr noundef %1) #7
  %.not9 = icmp eq i32 %10, 0
  br i1 %.not9, label %12, label %11

11:                                               ; preds = %8, %6
  store ptr null, ptr %0, align 8
  tail call void @slurm_free_suspend_int_msg(ptr noundef %4) #7
  br label %12

12:                                               ; preds = %3, %8, %11
  %.0 = phi i32 [ -1, %11 ], [ 0, %8 ], [ 0, %3 ]
  ret i32 %.0
}